; Function Attrs: nounwind uwtable
define hidden noundef i32 @phpdbg_compile() local_unnamed_addr #0 {
  %1 = alloca %struct._zend_file_handle, align 8
  %2 = alloca ptr, align 8
  %3 = alloca i64, align 8
  %4 = load ptr, ptr getelementptr inbounds (%struct._zend_phpdbg_globals, ptr @phpdbg_globals, i64 0, i32 24), align 8
  %.not = icmp eq ptr %4, null
  br i1 %.not, label %5, label %8

5:                                                ; preds = %0
  %6 = load i32, ptr getelementptr inbounds (%struct._zend_phpdbg_globals, ptr @phpdbg_globals, i64 0, i32 39, i64 1), align 4
  %7 = tail call i32 (i32, i32, ptr, ...) @phpdbg_print(i32 noundef 1, i32 noundef %6, ptr noundef nonnull @.str.82) #24
  br label %28

8:                                                ; preds = %0
  call void @zend_stream_init_filename(ptr noundef nonnull %1, ptr noundef nonnull %4) #24
  %9 = call i32 @php_stream_open_for_zend_ex(ptr noundef nonnull %1, i32 noundef 129) #24
  %10 = icmp eq i32 %9, 0
  br i1 %10, label %11, label %24

11:                                               ; preds = %8
  %12 = call i32 @zend_stream_fixup(ptr noundef nonnull %1, ptr noundef nonnull %2, ptr noundef nonnull %3) #24
  %13 = icmp eq i32 %12, 0
  br i1 %13, label %14, label %24

14:                                               ; preds = %11
  store i8 1, ptr getelementptr inbounds (%struct._zend_compiler_globals, ptr @compiler_globals, i64 0, i32 15), align 8
  %15 = load ptr, ptr @zend_compile_file, align 8
  %16 = call ptr %15(ptr noundef nonnull %1, i32 noundef 2) #24
  store ptr %16, ptr getelementptr inbounds (%struct._zend_phpdbg_globals, ptr @phpdbg_globals, i64 0, i32 26), align 8
  call void @zend_destroy_file_handle(ptr noundef nonnull %1) #24
  %17 = load ptr, ptr getelementptr inbounds (%struct._zend_executor_globals, ptr @executor_globals, i64 0, i32 50), align 8
  %.not3 = icmp eq ptr %17, null
  br i1 %.not3, label %20, label %18

18:                                               ; preds = %14
  %19 = call i32 @zend_exception_error(ptr noundef nonnull %17, i32 noundef 1) #24
  call void @_zend_bailout(ptr noundef nonnull @.str.78, i32 noundef 572) #26
  unreachable

20:                                               ; preds = %14
  %21 = load i32, ptr getelementptr inbounds (%struct._zend_phpdbg_globals, ptr @phpdbg_globals, i64 0, i32 39, i64 1), align 4
  %22 = load ptr, ptr getelementptr inbounds (%struct._zend_phpdbg_globals, ptr @phpdbg_globals, i64 0, i32 24), align 8
  %23 = call i32 (i32, i32, ptr, ...) @phpdbg_print(i32 noundef 2, i32 noundef %21, ptr noundef nonnull @.str.83, ptr noundef %22) #24
  br label %28

24:                                               ; preds = %11, %8
  %25 = load i32, ptr getelementptr inbounds (%struct._zend_phpdbg_globals, ptr @phpdbg_globals, i64 0, i32 39, i64 1), align 4
  %26 = load ptr, ptr getelementptr inbounds (%struct._zend_phpdbg_globals, ptr @phpdbg_globals, i64 0, i32 24), align 8
  %27 = call i32 (i32, i32, ptr, ...) @phpdbg_print(i32 noundef 1, i32 noundef %25, ptr noundef nonnull @.str.84, ptr noundef %26) #24
  call void @zend_destroy_file_handle(ptr noundef nonnull %1) #24
  br label %28

28:                                               ; preds = %24, %20, %5
  %.0 = phi i32 [ 0, %20 ], [ -1, %24 ], [ -1, %5 ]
  ret i32 %.0
}